target datalayout = "e-m:e-p270:32:32-p271:32:32-p272:64:64-i64:64-i128:128-f80:128-n8:16:32:64-S128"
target triple = "x86_64-pc-linux-gnu"

%struct._zend_stack = type { i32, i32, i32, ptr }

; Function Attrs: nounwind uwtable
define void @zend_stack_apply(ptr noundef %0, i32 noundef %1, ptr noundef %2) #0 {
  %4 = alloca ptr, align 8
  %5 = alloca i32, align 4
  %6 = alloca ptr, align 8
  %7 = alloca i32, align 4
  store ptr %0, ptr %4, align 8
  store i32 %1, ptr %5, align 4
  store ptr %2, ptr %6, align 8
  %8 = load i32, ptr %5, align 4
  switch i32 %8, label %64 [
    i32 0, label %9
    i32 1, label %37
  ]

9:                                                ; preds = %3
  %10 = load ptr, ptr %4, align 8
  %11 = getelementptr inbounds %struct._zend_stack, ptr %10, i32 0, i32 1
  %12 = load i32, ptr %11, align 4
  %13 = sub nsw i32 %12, 1
  store i32 %13, ptr %7, align 4
  br label %14

14:                                               ; preds = %33, %9
  %15 = load i32, ptr %7, align 4
  %16 = icmp sge i32 %15, 0
  br i1 %16, label %17, label %36

17:                                               ; preds = %14
  %18 = load ptr, ptr %6, align 8
  %19 = load ptr, ptr %4, align 8
  %20 = getelementptr inbounds %struct._zend_stack, ptr %19, i32 0, i32 3
  %21 = load ptr, ptr %20, align 8
  %22 = load ptr, ptr %4, align 8
  %23 = getelementptr inbounds %struct._zend_stack, ptr %22, i32 0, i32 0
  %24 = load i32, ptr %23, align 8
  %25 = load i32, ptr %7, align 4
  %26 = mul nsw i32 %24, %25
  %27 = sext i32 %26 to i64
  %28 = getelementptr inbounds i8, ptr %21, i64 %27
  %29 = call i32 %18(ptr noundef %28)
  %30 = icmp ne i32 %29, 0
  br i1 %30, label %31, label %32

31:                                               ; preds = %17
  br label %36

32:                                               ; preds = %17
  br label %33

33:                                               ; preds = %32
  %34 = load i32, ptr %7, align 4
  %35 = add nsw i32 %34, -1
  store i32 %35, ptr %7, align 4
  br label %14

36:                                               ; preds = %31, %14
  br label %64

37:                                               ; preds = %3
  store i32 0, ptr %7, align 4
  br label %38

38:                                               ; preds = %60, %37
  %39 = load i32, ptr %7, align 4
  %40 = load ptr, ptr %4, align 8
  %41 = getelementptr inbounds %struct._zend_stack, ptr %40, i32 0, i32 1
  %42 = load i32, ptr %41, align 4
  %43 = icmp slt i32 %39, %42
  br i1 %43, label %44, label %63

44:                                               ; preds = %38
  %45 = load ptr, ptr %6, align 8
  %46 = load ptr, ptr %4, align 8
  %47 = getelementptr inbounds %struct._zend_stack, ptr %46, i32 0, i32 3
  %48 = load ptr, ptr %47, align 8
  %49 = load ptr, ptr %4, align 8
  %50 = getelementptr inbounds %struct._zend_stack, ptr %49, i32 0, i32 0
  %51 = load i32, ptr %50, align 8
  %52 = load i32, ptr %7, align 4
  %53 = mul nsw i32 %51, %52
  %54 = sext i32 %53 to i64
  %55 = getelementptr inbounds i8, ptr %48, i64 %54
  %56 = call i32 %45(ptr noundef %55)
  %57 = icmp ne i32 %56, 0
  br i1 %57, label %58, label %59

58:                                               ; preds = %44
  br label %63

59:                                               ; preds = %44
  br label %60

60:                                               ; preds = %59
  %61 = load i32, ptr %7, align 4
  %62 = add nsw i32 %61, 1
  store i32 %62, ptr %7, align 4
  br label %38

63:                                               ; preds = %58, %38
  br label %64

64:                                               ; preds = %63, %36, %3
  ret void
}