; Function Attrs: nounwind uwtable
define void @zend_stack_apply(ptr nocapture noundef readonly %0, i32 noundef %1, ptr nocapture noundef readonly %2) local_unnamed_addr #1 {
  switch i32 %1, label %.loopexit [
    i32 0, label %8
    i32 1, label %.preheader
  ]

.preheader:                                       ; preds = %3
  %4 = getelementptr inbounds i8, ptr %0, i64 16
  %5 = getelementptr inbounds i8, ptr %0, i64 4
  %6 = load i32, ptr %5, align 4
  %7 = icmp sgt i32 %6, 0
  br i1 %7, label %.lr.ph, label %.loopexit

8:                                                ; preds = %3
  %9 = getelementptr inbounds i8, ptr %0, i64 4
  %10 = load i32, ptr %9, align 4
  %11 = getelementptr inbounds i8, ptr %0, i64 16
  br label %12

12:                                               ; preds = %14, %8
  %.0.in = phi i32 [ %10, %8 ], [ %.0, %14 ]
  %13 = icmp sgt i32 %.0.in, 0
  br i1 %13, label %14, label %.loopexit

14:                                               ; preds = %12
  %.0 = add nsw i32 %.0.in, -1
  %15 = load ptr, ptr %11, align 8
  %16 = load i32, ptr %0, align 8
  %17 = mul nsw i32 %16, %.0
  %18 = sext i32 %17 to i64
  %19 = getelementptr inbounds i8, ptr %15, i64 %18
  %20 = tail call i32 %2(ptr noundef %19) #7
  %.not14 = icmp eq i32 %20, 0
  br i1 %.not14, label %12, label %.loopexit

21:                                               ; preds = %.lr.ph
  %22 = add nuw nsw i32 %.116, 1
  %23 = load i32, ptr %5, align 4
  %24 = icmp slt i32 %22, %23
  br i1 %24, label %.lr.ph, label %.loopexit

.lr.ph:                                           ; preds = %.preheader, %21
  %.116 = phi i32 [ %22, %21 ], [ 0, %.preheader ]
  %25 = load ptr, ptr %4, align 8
  %26 = load i32, ptr %0, align 8
  %27 = mul nsw i32 %26, %.116
  %28 = sext i32 %27 to i64
  %29 = getelementptr inbounds i8, ptr %25, i64 %28
  %30 = tail call i32 %2(ptr noundef %29) #7
  %.not = icmp eq i32 %30, 0
  br i1 %.not, label %21, label %.loopexit

.loopexit:                                        ; preds = %.lr.ph, %21, %12, %14, %.preheader, %3
  ret void
}